target datalayout = "e-m:e-p270:32:32-p271:32:32-p272:64:64-i64:64-i128:128-f80:128-n8:16:32:64-S128"
target triple = "x86_64-unknown-linux-gnu"

%"struct.euf::ackerman::inference_hash" = type { i8 }
%"struct.euf::ackerman::inference_eq" = type { i8 }
%"class.euf::ackerman" = type <{ ptr, ptr, %class.hashtable, ptr, ptr, i32, i32, i32, [4 x i8] }>
%class.hashtable = type { %class.core_hashtable.base, [4 x i8] }
%class.core_hashtable.base = type <{ ptr, i32, i32, i32 }>
%"struct.euf::ackerman::inference" = type <{ %class.dll_base, ptr, ptr, ptr, i32, i8, [3 x i8] }>
%class.dll_base = type { ptr, ptr }
%class.core_hashtable = type <{ ptr, i32, i32, i32, [4 x i8] }>
%class.default_hash_entry = type { i32, i32, ptr }

; Function Attrs: mustprogress nounwind uwtable
define linkonce_odr hidden void @_ZN18default_hash_entryIPN3euf8ackerman9inferenceEEC2Ev(ptr noundef nonnull align 8 dereferenceable(16) %this) unnamed_addr #4 comdat align 2 {
entry:
  %this.addr = alloca ptr, align 8
  store ptr %this, ptr %this.addr, align 8
  %this1 = load ptr, ptr %this.addr, align 8
  %m_hash = getelementptr inbounds %class.default_hash_entry, ptr %this1, i32 0, i32 0
  store i32 0, ptr %m_hash, align 8
  %m_state = getelementptr inbounds %class.default_hash_entry, ptr %this1, i32 0, i32 1
  store i32 0, ptr %m_state, align 4
  ret void
}

; Function Attrs: mustprogress uwtable
define linkonce_odr hidden noalias noundef ptr @_Z10alloc_vectI18default_hash_entryIPN3euf8ackerman9inferenceEEEPT_j(i32 noundef %sz) #5 comdat {
entry:
  %sz.addr = alloca i32, align 4
  %r = alloca ptr, align 8
  %curr = alloca ptr, align 8
  %i = alloca i32, align 4
  store i32 %sz, ptr %sz.addr, align 4
  %0 = load i32, ptr %sz.addr, align 4
  %conv = zext i32 %0 to i64
  %mul = mul i64 16, %conv
  %call = call noalias noundef ptr @_ZN6memory8allocateEm(i64 noundef %mul)
  store ptr %call, ptr %r, align 8
  %1 = load ptr, ptr %r, align 8
  store ptr %1, ptr %curr, align 8
  store i32 0, ptr %i, align 4
  br label %for.cond

for.cond:                                         ; preds = %for.inc, %entry
  %2 = load i32, ptr %i, align 4
  %3 = load i32, ptr %sz.addr, align 4
  %cmp = icmp ult i32 %2, %3
  br i1 %cmp, label %for.body, label %for.end

for.body:                                         ; preds = %for.cond
  %4 = load ptr, ptr %curr, align 8
  call void @llvm.memset.p0.i64(ptr align 8 %4, i8 0, i64 16, i1 false)
  call void @_ZN18default_hash_entryIPN3euf8ackerman9inferenceEEC2Ev(ptr noundef nonnull align 8 dereferenceable(16) %4) #3
  br label %for.inc

for.inc:                                          ; preds = %for.body
  %5 = load i32, ptr %i, align 4
  %inc = add i32 %5, 1
  store i32 %inc, ptr %i, align 4
  %6 = load ptr, ptr %curr, align 8
  %incdec.ptr = getelementptr inbounds %class.default_hash_entry, ptr %6, i32 1
  store ptr %incdec.ptr, ptr %curr, align 8
  br label %for.cond, !llvm.loop !10

for.end:                                          ; preds = %for.cond
  %7 = load ptr, ptr %r, align 8
  ret ptr %7
}

; Function Attrs: mustprogress nounwind uwtable
define linkonce_odr hidden void @_ZN8dll_baseIN3euf8ackerman9inferenceEEC2Ev(ptr noundef nonnull align 8 dereferenceable(16) %this) unnamed_addr #4 comdat align 2 {
entry:
  %this.addr = alloca ptr, align 8
  store ptr %this, ptr %this.addr, align 8
  %this1 = load ptr, ptr %this.addr, align 8
  %m_next = getelementptr inbounds %class.dll_base, ptr %this1, i32 0, i32 0
  store ptr null, ptr %m_next, align 8
  %m_prev = getelementptr inbounds %class.dll_base, ptr %this1, i32 0, i32 1
  store ptr null, ptr %m_prev, align 8
  ret void
}

; Function Attrs: mustprogress uwtable
define linkonce_odr hidden noundef ptr @_ZN14core_hashtableI18default_hash_entryIPN3euf8ackerman9inferenceEENS2_14inference_hashENS2_12inference_eqEE11alloc_tableEj(ptr noundef nonnull align 8 dereferenceable(20) %this, i32 noundef %size) #5 comdat align 2 {
entry:
  %this.addr = alloca ptr, align 8
  %size.addr = alloca i32, align 4
  %entries = alloca ptr, align 8
  store ptr %this, ptr %this.addr, align 8
  store i32 %size, ptr %size.addr, align 4
  %0 = load i32, ptr %size.addr, align 4
  %call = call noalias noundef ptr @_Z10alloc_vectI18default_hash_entryIPN3euf8ackerman9inferenceEEEPT_j(i32 noundef %0)
  store ptr %call, ptr %entries, align 8
  %1 = load ptr, ptr %entries, align 8
  ret ptr %1
}

; Function Attrs: mustprogress nounwind uwtable
define linkonce_odr hidden void @_ZN8dll_baseIN3euf8ackerman9inferenceEE4initEPS2_(ptr noundef nonnull align 8 dereferenceable(16) %this, ptr noundef %t) #4 comdat align 2 {
entry:
  %this.addr = alloca ptr, align 8
  %t.addr = alloca ptr, align 8
  store ptr %this, ptr %this.addr, align 8
  store ptr %t, ptr %t.addr, align 8
  %this1 = load ptr, ptr %this.addr, align 8
  %0 = load ptr, ptr %t.addr, align 8
  %m_next = getelementptr inbounds %class.dll_base, ptr %this1, i32 0, i32 0
  store ptr %0, ptr %m_next, align 8
  %1 = load ptr, ptr %t.addr, align 8
  %m_prev = getelementptr inbounds %class.dll_base, ptr %this1, i32 0, i32 1
  store ptr %1, ptr %m_prev, align 8
  ret void
}

; Function Attrs: mustprogress nounwind uwtable
define linkonce_odr hidden void @_ZN3euf8ackerman9inferenceC2Ev(ptr noundef nonnull align 8 dereferenceable(45) %this) unnamed_addr #4 comdat align 2 {
entry:
  %this.addr = alloca ptr, align 8
  store ptr %this, ptr %this.addr, align 8
  %this1 = load ptr, ptr %this.addr, align 8
  call void @_ZN8dll_baseIN3euf8ackerman9inferenceEEC2Ev(ptr noundef nonnull align 8 dereferenceable(16) %this1) #3
  %a = getelementptr inbounds %"struct.euf::ackerman::inference", ptr %this1, i32 0, i32 1
  store ptr null, ptr %a, align 8
  %b = getelementptr inbounds %"struct.euf::ackerman::inference", ptr %this1, i32 0, i32 2
  store ptr null, ptr %b, align 8
  %c = getelementptr inbounds %"struct.euf::ackerman::inference", ptr %this1, i32 0, i32 3
  store ptr null, ptr %c, align 8
  %m_count = getelementptr inbounds %"struct.euf::ackerman::inference", ptr %this1, i32 0, i32 4
  store i32 0, ptr %m_count, align 8
  %is_cc = getelementptr inbounds %"struct.euf::ackerman::inference", ptr %this1, i32 0, i32 5
  store i8 0, ptr %is_cc, align 4
  ret void
}

; Function Attrs: mustprogress uwtable
define linkonce_odr hidden void @_ZN14core_hashtableI18default_hash_entryIPN3euf8ackerman9inferenceEENS2_14inference_hashENS2_12inference_eqEEC2EjRKS6_RKS7_(ptr noundef nonnull align 8 dereferenceable(20) %this, i32 noundef %initial_capacity, ptr noundef nonnull align 1 dereferenceable(1) %h, ptr noundef nonnull align 1 dereferenceable(1) %e) unnamed_addr #5 comdat align 2 {
entry:
  %this.addr = alloca ptr, align 8
  %initial_capacity.addr = alloca i32, align 4
  %h.addr = alloca ptr, align 8
  %e.addr = alloca ptr, align 8
  store ptr %this, ptr %this.addr, align 8
  store i32 %initial_capacity, ptr %initial_capacity.addr, align 4
  store ptr %h, ptr %h.addr, align 8
  store ptr %e, ptr %e.addr, align 8
  %this1 = load ptr, ptr %this.addr, align 8
  %0 = load i32, ptr %initial_capacity.addr, align 4
  %call = call noundef ptr @_ZN14core_hashtableI18default_hash_entryIPN3euf8ackerman9inferenceEENS2_14inference_hashENS2_12inference_eqEE11alloc_tableEj(ptr noundef nonnull align 8 dereferenceable(20) %this1, i32 noundef %0)
  %m_table = getelementptr inbounds %class.core_hashtable, ptr %this1, i32 0, i32 0
  store ptr %call, ptr %m_table, align 8
  %1 = load i32, ptr %initial_capacity.addr, align 4
  %m_capacity = getelementptr inbounds %class.core_hashtable, ptr %this1, i32 0, i32 1
  store i32 %1, ptr %m_capacity, align 8
  %m_size = getelementptr inbounds %class.core_hashtable, ptr %this1, i32 0, i32 2
  store i32 0, ptr %m_size, align 4
  %m_num_deleted = getelementptr inbounds %class.core_hashtable, ptr %this1, i32 0, i32 3
  store i32 0, ptr %m_num_deleted, align 8
  ret void
}

; Function Attrs: mustprogress uwtable
define hidden void @_ZN3euf8ackerman7new_tmpEv(ptr noundef nonnull align 8 dereferenceable(68) %this) #5 align 2 {
entry:
  %this.addr = alloca ptr, align 8
  store ptr %this, ptr %this.addr, align 8
  %this1 = load ptr, ptr %this.addr, align 8
  %call = call noalias noundef ptr @_ZN6memory8allocateEm(i64 noundef 48)
  call void @_ZN3euf8ackerman9inferenceC2Ev(ptr noundef nonnull align 8 dereferenceable(45) %call)
  %m_tmp_inference = getelementptr inbounds %"class.euf::ackerman", ptr %this1, i32 0, i32 4
  store ptr %call, ptr %m_tmp_inference, align 8
  %m_tmp_inference2 = getelementptr inbounds %"class.euf::ackerman", ptr %this1, i32 0, i32 4
  %0 = load ptr, ptr %m_tmp_inference2, align 8
  %m_tmp_inference3 = getelementptr inbounds %"class.euf::ackerman", ptr %this1, i32 0, i32 4
  %1 = load ptr, ptr %m_tmp_inference3, align 8
  call void @_ZN8dll_baseIN3euf8ackerman9inferenceEE4initEPS2_(ptr noundef nonnull align 8 dereferenceable(16) %0, ptr noundef %1)
  ret void
}

; Function Attrs: mustprogress uwtable
define linkonce_odr hidden void @_ZN9hashtableIPN3euf8ackerman9inferenceENS1_14inference_hashENS1_12inference_eqEEC2EjRKS4_RKS5_(ptr noundef nonnull align 8 dereferenceable(20) %this, i32 noundef %initial_capacity, ptr noundef nonnull align 1 dereferenceable(1) %h, ptr noundef nonnull align 1 dereferenceable(1) %e) unnamed_addr #5 comdat align 2 {
entry:
  %this.addr = alloca ptr, align 8
  %initial_capacity.addr = alloca i32, align 4
  %h.addr = alloca ptr, align 8
  %e.addr = alloca ptr, align 8
  store ptr %this, ptr %this.addr, align 8
  store i32 %initial_capacity, ptr %initial_capacity.addr, align 4
  store ptr %h, ptr %h.addr, align 8
  store ptr %e, ptr %e.addr, align 8
  %this1 = load ptr, ptr %this.addr, align 8
  %0 = load i32, ptr %initial_capacity.addr, align 4
  %1 = load ptr, ptr %h.addr, align 8
  %2 = load ptr, ptr %e.addr, align 8
  call void @_ZN14core_hashtableI18default_hash_entryIPN3euf8ackerman9inferenceEENS2_14inference_hashENS2_12inference_eqEEC2EjRKS6_RKS7_(ptr noundef nonnull align 8 dereferenceable(20) %this1, i32 noundef %0, ptr noundef nonnull align 1 dereferenceable(1) %1, ptr noundef nonnull align 1 dereferenceable(1) %2)
  ret void
}

; Function Attrs: mustprogress uwtable
define hidden void @_ZN3euf8ackermanC2ERNS_6solverER11ast_manager(ptr noundef nonnull align 8 dereferenceable(68) %this, ptr noundef nonnull align 8 dereferenceable(9136) %ctx, ptr noundef nonnull align 8 dereferenceable(976) %m) unnamed_addr #5 align 2 personality ptr @__gxx_personality_v0 {
entry:
  %this.addr = alloca ptr, align 8
  %ctx.addr = alloca ptr, align 8
  %m.addr = alloca ptr, align 8
  %ref.tmp = alloca %"struct.euf::ackerman::inference_hash", align 1
  %ref.tmp4 = alloca %"struct.euf::ackerman::inference_eq", align 1
  %exn.slot = alloca ptr, align 8
  %ehselector.slot = alloca i32, align 4
  store ptr %this, ptr %this.addr, align 8
  store ptr %ctx, ptr %ctx.addr, align 8
  store ptr %m, ptr %m.addr, align 8
  %this1 = load ptr, ptr %this.addr, align 8
  %ctx2 = getelementptr inbounds %"class.euf::ackerman", ptr %this1, i32 0, i32 0
  %0 = load ptr, ptr %ctx.addr, align 8
  store ptr %0, ptr %ctx2, align 8
  %m3 = getelementptr inbounds %"class.euf::ackerman", ptr %this1, i32 0, i32 1
  %1 = load ptr, ptr %m.addr, align 8
  store ptr %1, ptr %m3, align 8
  %m_table = getelementptr inbounds %"class.euf::ackerman", ptr %this1, i32 0, i32 2
  call void @_ZN9hashtableIPN3euf8ackerman9inferenceENS1_14inference_hashENS1_12inference_eqEEC2EjRKS4_RKS5_(ptr noundef nonnull align 8 dereferenceable(20) %m_table, i32 noundef 8, ptr noundef nonnull align 1 dereferenceable(1) %ref.tmp, ptr noundef nonnull align 1 dereferenceable(1) %ref.tmp4)
  %m_queue = getelementptr inbounds %"class.euf::ackerman", ptr %this1, i32 0, i32 3
  store ptr null, ptr %m_queue, align 8
  %m_tmp_inference = getelementptr inbounds %"class.euf::ackerman", ptr %this1, i32 0, i32 4
  store ptr null, ptr %m_tmp_inference, align 8
  %m_gc_threshold = getelementptr inbounds %"class.euf::ackerman", ptr %this1, i32 0, i32 5
  store i32 100, ptr %m_gc_threshold, align 8
  %m_high_watermark = getelementptr inbounds %"class.euf::ackerman", ptr %this1, i32 0, i32 6
  store i32 1000, ptr %m_high_watermark, align 4
  %m_num_propagations_since_last_gc = getelementptr inbounds %"class.euf::ackerman", ptr %this1, i32 0, i32 7
  store i32 0, ptr %m_num_propagations_since_last_gc, align 8
  invoke void @_ZN3euf8ackerman7new_tmpEv(ptr noundef nonnull align 8 dereferenceable(68) %this1)
          to label %invoke.cont unwind label %lpad

invoke.cont:                                      ; preds = %entry
  ret void

lpad:                                             ; preds = %entry
  %2 = landingpad { ptr, i32 }
          cleanup
  %3 = extractvalue { ptr, i32 } %2, 0
  store ptr %3, ptr %exn.slot, align 8
  %4 = extractvalue { ptr, i32 } %2, 1
  store i32 %4, ptr %ehselector.slot, align 4
  call void @_ZN9hashtableIPN3euf8ackerman9inferenceENS1_14inference_hashENS1_12inference_eqEED2Ev(ptr noundef nonnull align 8 dereferenceable(20) %m_table) #3
  br label %eh.resume

eh.resume:                                        ; preds = %lpad
  %exn = load ptr, ptr %exn.slot, align 8
  %sel = load i32, ptr %ehselector.slot, align 4
  %lpad.val = insertvalue { ptr, i32 } poison, ptr %exn, 0
  %lpad.val5 = insertvalue { ptr, i32 } %lpad.val, i32 %sel, 1
  resume { ptr, i32 } %lpad.val5
}