; Function Attrs: mustprogress uwtable
define hidden void @_ZN3euf8ackermanC2ERNS_6solverER11ast_manager(ptr noundef nonnull align 8 dereferenceable(68) %this, ptr noundef nonnull align 8 dereferenceable(9136) %ctx, ptr noundef nonnull align 8 dereferenceable(976) %m) unnamed_addr #3 align 2 personality ptr @__gxx_personality_v0 {
entry:
  store ptr %ctx, ptr %this, align 8
  %m3 = getelementptr inbounds i8, ptr %this, i64 8
  store ptr %m, ptr %m3, align 8
  %m_table = getelementptr inbounds i8, ptr %this, i64 16
  %call.i.i.i.i = tail call noalias noundef ptr @_ZN6memory8allocateEm(i64 noundef 128)
  tail call void @llvm.memset.p0.i64(ptr noundef nonnull align 8 dereferenceable(128) %call.i.i.i.i, i8 0, i64 128, i1 false)
  store ptr %call.i.i.i.i, ptr %m_table, align 8
  %m_capacity.i.i = getelementptr inbounds i8, ptr %this, i64 24
  store i32 8, ptr %m_capacity.i.i, align 8
  %m_size.i.i = getelementptr inbounds i8, ptr %this, i64 28
  store i32 0, ptr %m_size.i.i, align 4
  %m_num_deleted.i.i = getelementptr inbounds i8, ptr %this, i64 32
  store i32 0, ptr %m_num_deleted.i.i, align 8
  %m_queue = getelementptr inbounds i8, ptr %this, i64 40
  %m_gc_threshold = getelementptr inbounds i8, ptr %this, i64 56
  tail call void @llvm.memset.p0.i64(ptr noundef nonnull align 8 dereferenceable(16) %m_queue, i8 0, i64 16, i1 false)
  store i32 100, ptr %m_gc_threshold, align 8
  %m_high_watermark = getelementptr inbounds i8, ptr %this, i64 60
  store i32 1000, ptr %m_high_watermark, align 4
  %m_num_propagations_since_last_gc = getelementptr inbounds i8, ptr %this, i64 64
  store i32 0, ptr %m_num_propagations_since_last_gc, align 8
  %call.i1 = invoke noalias noundef ptr @_ZN6memory8allocateEm(i64 noundef 48)
          to label %invoke.cont unwind label %lpad

invoke.cont:                                      ; preds = %entry
  %m_tmp_inference = getelementptr inbounds i8, ptr %this, i64 48
  %0 = getelementptr inbounds i8, ptr %call.i1, i64 16
  tail call void @llvm.memset.p0.i64(ptr noundef nonnull align 8 dereferenceable(45) %0, i8 0, i64 29, i1 false)
  store ptr %call.i1, ptr %m_tmp_inference, align 8
  store ptr %call.i1, ptr %call.i1, align 8
  %m_prev.i.i = getelementptr inbounds i8, ptr %call.i1, i64 8
  store ptr %call.i1, ptr %m_prev.i.i, align 8
  ret void

lpad:                                             ; preds = %entry
  %1 = landingpad { ptr, i32 }
          cleanup
  tail call void @_ZN9hashtableIPN3euf8ackerman9inferenceENS1_14inference_hashENS1_12inference_eqEED2Ev(ptr noundef nonnull align 8 dereferenceable(20) %m_table) #14
  resume { ptr, i32 } %1
}